target datalayout = "e-m:e-p270:32:32-p271:32:32-p272:64:64-i64:64-i128:128-f80:128-n8:16:32:64-S128"
target triple = "x86_64-pc-linux-gnu"

%struct.mbedtls_mpi = type { i32, i64, ptr }

; Function Attrs: mustprogress nounwind uwtable
define internal noundef i64 @_ZL11mbedtls_clzm(i64 noundef %0) #0 {
  %2 = alloca i64, align 8
  %3 = alloca i64, align 8
  %4 = alloca i64, align 8
  store i64 %0, ptr %2, align 8, !tbaa !16
  call void @llvm.lifetime.start.p0(i64 8, ptr %3) #10
  call void @llvm.lifetime.start.p0(i64 8, ptr %4) #10
  store i64 -9223372036854775808, ptr %4, align 8, !tbaa !16
  store i64 0, ptr %3, align 8, !tbaa !16
  br label %5

5:                                                ; preds = %17, %1
  %6 = load i64, ptr %3, align 8, !tbaa !16
  %7 = icmp ult i64 %6, 64
  br i1 %7, label %8, label %20

8:                                                ; preds = %5
  %9 = load i64, ptr %2, align 8, !tbaa !16
  %10 = load i64, ptr %4, align 8, !tbaa !16
  %11 = and i64 %9, %10
  %12 = icmp ne i64 %11, 0
  br i1 %12, label %13, label %14

13:                                               ; preds = %8
  br label %20

14:                                               ; preds = %8
  %15 = load i64, ptr %4, align 8, !tbaa !16
  %16 = lshr i64 %15, 1
  store i64 %16, ptr %4, align 8, !tbaa !16
  br label %17

17:                                               ; preds = %14
  %18 = load i64, ptr %3, align 8, !tbaa !16
  %19 = add i64 %18, 1
  store i64 %19, ptr %3, align 8, !tbaa !16
  br label %5, !llvm.loop !25

20:                                               ; preds = %13, %5
  %21 = load i64, ptr %3, align 8, !tbaa !16
  call void @llvm.lifetime.end.p0(i64 8, ptr %4) #10
  call void @llvm.lifetime.end.p0(i64 8, ptr %3) #10
  ret i64 %21
}

; Function Attrs: mustprogress uwtable
define hidden i64 @mbedtls_mpi_bitlen(ptr noundef %0) #1 {
  %2 = alloca i64, align 8
  %3 = alloca ptr, align 8
  %4 = alloca i64, align 8
  %5 = alloca i64, align 8
  %6 = alloca i32, align 4
  store ptr %0, ptr %3, align 8, !tbaa !3
  call void @llvm.lifetime.start.p0(i64 8, ptr %4) #10
  call void @llvm.lifetime.start.p0(i64 8, ptr %5) #10
  %7 = load ptr, ptr %3, align 8, !tbaa !3
  %8 = getelementptr inbounds nuw %struct.mbedtls_mpi, ptr %7, i32 0, i32 1
  %9 = load i64, ptr %8, align 8, !tbaa !13
  %10 = icmp eq i64 %9, 0
  br i1 %10, label %11, label %12

11:                                               ; preds = %1
  store i64 0, ptr %2, align 8
  store i32 1, ptr %6, align 4
  br label %46

12:                                               ; preds = %1
  %13 = load ptr, ptr %3, align 8, !tbaa !3
  %14 = getelementptr inbounds nuw %struct.mbedtls_mpi, ptr %13, i32 0, i32 1
  %15 = load i64, ptr %14, align 8, !tbaa !13
  %16 = sub i64 %15, 1
  store i64 %16, ptr %4, align 8, !tbaa !16
  br label %17

17:                                               ; preds = %30, %12
  %18 = load i64, ptr %4, align 8, !tbaa !16
  %19 = icmp ugt i64 %18, 0
  br i1 %19, label %20, label %33

20:                                               ; preds = %17
  %21 = load ptr, ptr %3, align 8, !tbaa !3
  %22 = getelementptr inbounds nuw %struct.mbedtls_mpi, ptr %21, i32 0, i32 2
  %23 = load ptr, ptr %22, align 8, !tbaa !14
  %24 = load i64, ptr %4, align 8, !tbaa !16
  %25 = getelementptr inbounds nuw i64, ptr %23, i64 %24
  %26 = load i64, ptr %25, align 8, !tbaa !16
  %27 = icmp ne i64 %26, 0
  br i1 %27, label %28, label %29

28:                                               ; preds = %20
  br label %33

29:                                               ; preds = %20
  br label %30

30:                                               ; preds = %29
  %31 = load i64, ptr %4, align 8, !tbaa !16
  %32 = add i64 %31, -1
  store i64 %32, ptr %4, align 8, !tbaa !16
  br label %17, !llvm.loop !24

33:                                               ; preds = %28, %17
  %34 = load ptr, ptr %3, align 8, !tbaa !3
  %35 = getelementptr inbounds nuw %struct.mbedtls_mpi, ptr %34, i32 0, i32 2
  %36 = load ptr, ptr %35, align 8, !tbaa !14
  %37 = load i64, ptr %4, align 8, !tbaa !16
  %38 = getelementptr inbounds nuw i64, ptr %36, i64 %37
  %39 = load i64, ptr %38, align 8, !tbaa !16
  %40 = call noundef i64 @_ZL11mbedtls_clzm(i64 noundef %39)
  %41 = sub i64 64, %40
  store i64 %41, ptr %5, align 8, !tbaa !16
  %42 = load i64, ptr %4, align 8, !tbaa !16
  %43 = mul i64 %42, 64
  %44 = load i64, ptr %5, align 8, !tbaa !16
  %45 = add i64 %43, %44
  store i64 %45, ptr %2, align 8
  store i32 1, ptr %6, align 4
  br label %46

46:                                               ; preds = %33, %11
  call void @llvm.lifetime.end.p0(i64 8, ptr %5) #10
  call void @llvm.lifetime.end.p0(i64 8, ptr %4) #10
  %47 = load i64, ptr %2, align 8
  ret i64 %47
}