; Function Attrs: mustprogress nofree norecurse nosync nounwind willreturn memory(read, inaccessiblemem: none) uwtable
define hidden i64 @mbedtls_mpi_bitlen(ptr noundef readonly captures(none) %0) local_unnamed_addr #8 {
  %2 = getelementptr inbounds nuw i8, ptr %0, i64 8
  %3 = load i64, ptr %2, align 8, !tbaa !12
  %4 = icmp eq i64 %3, 0
  br i1 %4, label %19, label %.preheader

.preheader:                                       ; preds = %1
  %5 = getelementptr inbounds nuw i8, ptr %0, i64 16
  %.pre.pre = load ptr, ptr %5, align 8, !tbaa !11
  br label %6

6:                                                ; preds = %.preheader, %7
  %.010.in = phi i64 [ %.010, %7 ], [ %3, %.preheader ]
  %.010 = add i64 %.010.in, -1
  %.not = icmp eq i64 %.010, 0
  br i1 %.not, label %._crit_edge, label %7

._crit_edge:                                      ; preds = %6
  %.pre14 = load i64, ptr %.pre.pre, align 8, !tbaa !13
  br label %12

7:                                                ; preds = %6
  %8 = getelementptr inbounds nuw i64, ptr %.pre.pre, i64 %.010
  %9 = load i64, ptr %8, align 8, !tbaa !13
  %.not12 = icmp eq i64 %9, 0
  br i1 %.not12, label %6, label %split, !llvm.loop !19

split:                                            ; preds = %7
  %10 = shl i64 %.010, 6
  %11 = add i64 %10, 64
  br label %12

12:                                               ; preds = %split, %._crit_edge
  %13 = phi i64 [ %.pre14, %._crit_edge ], [ %9, %split ]
  %.010.lcssa = phi i64 [ 64, %._crit_edge ], [ %11, %split ]
  %.not7.i = icmp sgt i64 %13, -1
  br i1 %.not7.i, label %.lr.ph.i, label %_ZL11mbedtls_clzm.exit

.lr.ph.i:                                         ; preds = %12, %.lr.ph.i
  %.09.i = phi i64 [ %14, %.lr.ph.i ], [ -9223372036854775808, %12 ]
  %.068.i = phi i64 [ %15, %.lr.ph.i ], [ 0, %12 ]
  %14 = lshr i64 %.09.i, 1
  %15 = add nuw nsw i64 %.068.i, 1
  %16 = icmp samesign ult i64 %.068.i, 63
  %17 = and i64 %14, %13
  %.not.i = icmp eq i64 %17, 0
  %or.cond.i = select i1 %16, i1 %.not.i, i1 false
  br i1 %or.cond.i, label %.lr.ph.i, label %_ZL11mbedtls_clzm.exit.loopexit, !llvm.loop !20

_ZL11mbedtls_clzm.exit.loopexit:                  ; preds = %.lr.ph.i
  %.neg = xor i64 %.068.i, -1
  br label %_ZL11mbedtls_clzm.exit

_ZL11mbedtls_clzm.exit:                           ; preds = %_ZL11mbedtls_clzm.exit.loopexit, %12
  %.06.lcssa.i.neg13 = phi i64 [ 0, %12 ], [ %.neg, %_ZL11mbedtls_clzm.exit.loopexit ]
  %18 = add i64 %.010.lcssa, %.06.lcssa.i.neg13
  br label %19

19:                                               ; preds = %1, %_ZL11mbedtls_clzm.exit
  %.0 = phi i64 [ %18, %_ZL11mbedtls_clzm.exit ], [ 0, %1 ]
  ret i64 %.0
}